(i__main__
Map
p0
(dp1
S'tiles'
p2
(lp3
(lp4
(iobjects
Ground
p5
(dp6
S'species_name'
p7
S'trawa'
p8
sS'species_data'
p9
(dp10
S'symbol'
p11
S'.'
p12
ssba(iobjects
Tree
p13
(dp14
g7
S'dab'
p15
sg9
(dp16
g11
S'D'
p17
sS'probability'
p18
I20
ssba(iobjects
Mushroom
p19
(dp20
g7
S'lysiczka lancetowata'
p21
sg9
(dp22
S'shape'
p23
S'cone'
p24
sS'tastiness'
p25
I50
sg18
I5
sS'color'
p26
S'brown'
p27
sg11
S'l'
p28
sS'favorite_tree'
p29
g15
sS'type'
p30
S'psilocybe'
p31
sS'poisonous'
p32
S'no'
p33
sS'stipe'
p34
S'plain'
p35
ssba(iobjects
Ground
p36
(dp37
g7
g8
sg9
g10
sba(iobjects
Ground
p38
(dp39
g7
g8
sg9
g10
sba(iobjects
Ground
p40
(dp41
g7
g8
sg9
g10
sba(iobjects
Ground
p42
(dp43
g7
g8
sg9
g10
sba(iobjects
Ground
p44
(dp45
g7
g8
sg9
g10
sbaa(lp46
(iobjects
Ground
p47
(dp48
g7
g8
sg9
g10
sba(iobjects
Mushroom
p49
(dp50
g7
S'muchomor czerwony'
p51
sg9
(dp52
g23
S'cap'
p53
sg25
I0
sg18
I15
sg26
S'red'
p54
sg11
S'h'
p55
sg29
S'swierk'
p56
sg30
S'amanita'
p57
sg32
S'yes'
p58
sg34
S'dotted'
p59
ssba(iobjects
Mushroom
p60
(dp61
g7
S'uszak gestowlosy'
p62
sg9
(dp63
g23
g53
sg25
I40
sg18
I10
sg26
g27
sg11
S'u'
p64
sg29
g15
sg30
g57
sg32
g33
sg34
g35
ssba(iobjects
Tree
p65
(dp66
g7
g56
sg9
(dp67
g11
S'S'
p68
sg18
I10
ssba(iobjects
Mushroom
p69
(dp70
g7
S'pieprznik'
p71
sg9
(dp72
g23
g24
sg25
I10
sg18
I15
sg26
S'yellow'
p73
sg11
S'p'
p74
sg29
S'brzoza'
p75
sg30
S'cantharellaceae'
p76
sg32
g33
sg34
S'rugged'
p77
ssba(iobjects
Ground
p78
(dp79
g7
g8
sg9
g10
sba(iobjects
Ground
p80
(dp81
g7
g8
sg9
g10
sba(iobjects
Ground
p82
(dp83
g7
g8
sg9
g10
sbaa(lp84
(iobjects
Ground
p85
(dp86
g7
g8
sg9
g10
sba(iobjects
Ground
p87
(dp88
g7
g8
sg9
g10
sba(iobjects
Mushroom
p89
(dp90
g7
S'maslak'
p91
sg9
(dp92
g23
g53
sg25
I5
sg18
I30
sg26
S'light brown'
p93
sg11
S'm'
p94
sg29
g75
sg30
g57
sg32
g33
sg34
g35
ssba(iobjects
Mushroom
p95
(dp96
g7
g91
sg9
g92
sba(iobjects
Mushroom
p97
(dp98
g7
S'czubajka kania'
p99
sg9
(dp100
g23
g53
sg25
I20
sg18
I10
sg26
S'white'
p101
sg11
S'c'
p102
sg29
g75
sg30
S'macrolepiota'
p103
sg32
g33
sg34
g59
ssba(iobjects
Ground
p104
(dp105
g7
g8
sg9
g10
sba(iobjects
Ground
p106
(dp107
g7
g8
sg9
g10
sba(iobjects
Ground
p108
(dp109
g7
g8
sg9
g10
sbaa(lp110
(iobjects
Tree
p111
(dp112
g7
g75
sg9
(dp113
g11
S'B'
p114
sg18
I30
ssba(iobjects
Mushroom
p115
(dp116
g7
g99
sg9
g100
sba(iobjects
Ground
p117
(dp118
g7
g8
sg9
g10
sba(iobjects
Ground
p119
(dp120
g7
g8
sg9
g10
sba(iobjects
Ground
p121
(dp122
g7
g8
sg9
g10
sba(iobjects
Ground
p123
(dp124
g7
g8
sg9
g10
sba(iobjects
Ground
p125
(dp126
g7
g8
sg9
g10
sba(iobjects
Ground
p127
(dp128
g7
g8
sg9
g10
sbaa(lp129
(iobjects
Mushroom
p130
(dp131
g7
g71
sg9
g72
sba(iobjects
Ground
p132
(dp133
g7
S'mech'
p134
sg9
(dp135
g11
S'+'
p136
sg18
I60
ssba(iobjects
Tree
p137
(dp138
g7
g56
sg9
g67
sba(iobjects
Ground
p139
(dp140
g7
g8
sg9
g10
sba(iobjects
Ground
p141
(dp142
g7
g8
sg9
g10
sba(iobjects
Ground
p143
(dp144
g7
g8
sg9
g10
sba(iobjects
Ground
p145
(dp146
g7
g8
sg9
g10
sba(iobjects
Ground
p147
(dp148
g7
g8
sg9
g10
sbaa(lp149
(iobjects
Ground
p150
(dp151
g7
g8
sg9
g10
sba(iobjects
Ground
p152
(dp153
g7
g8
sg9
g10
sba(iobjects
Mushroom
p154
(dp155
g7
g71
sg9
g72
sba(iobjects
Ground
p156
(dp157
g7
g134
sg9
g135
sba(iobjects
Ground
p158
(dp159
g7
g8
sg9
g10
sba(iobjects
Ground
p160
(dp161
g7
g8
sg9
g10
sba(iobjects
Ground
p162
(dp163
g7
g8
sg9
g10
sba(iobjects
Ground
p164
(dp165
g7
g8
sg9
g10
sbaa(lp166
(iobjects
Ground
p167
(dp168
g7
g8
sg9
g10
sba(iobjects
Ground
p169
(dp170
g7
g8
sg9
g10
sba(iobjects
Ground
p171
(dp172
g7
g8
sg9
g10
sba(iobjects
Ground
p173
(dp174
g7
g8
sg9
g10
sba(iobjects
Ground
p175
(dp176
g7
g8
sg9
g10
sba(iobjects
Ground
p177
(dp178
g7
g8
sg9
g10
sba(iobjects
Ground
p179
(dp180
g7
g8
sg9
g10
sba(iobjects
Ground
p181
(dp182
g7
g8
sg9
g10
sbaa(lp183
(iobjects
Ground
p184
(dp185
g7
g8
sg9
g10
sba(iobjects
Ground
p186
(dp187
g7
g8
sg9
g10
sba(iobjects
Ground
p188
(dp189
g7
g8
sg9
g10
sba(iobjects
Ground
p190
(dp191
g7
g8
sg9
g10
sba(iobjects
Ground
p192
(dp193
g7
g8
sg9
g10
sba(iobjects
Ground
p194
(dp195
g7
g8
sg9
g10
sba(iobjects
Ground
p196
(dp197
g7
g8
sg9
g10
sba(iobjects
Ground
p198
(dp199
g7
g8
sg9
g10
sbaasb.